(dp0
V\u4f60\u8bf4\u7684\u90fd\u5bf9
p1
(dp2
S'playCount'
p3
V166672000
p4
sS'aveScore'
p5
F0.7044551047900889
sS'sum'
p6
I3690
ssV\u4e86\u4e0d\u8d77\u7684\u5320\u4eba2
p7
(dp8
g3
V\u64ad\u653e
p9
sg5
F0.6388732986114822
sg6
I4649
ssV\u5929\u624dj
p10
(dp11
g3
V114724000
p12
sg5
F0.6834968232531629
sg6
I5929
ssV\u4e07\u5996\u4e4b\u57ce
p13
(dp14
g3
V28405125
p15
sg5
F0.7863404471026667
sg6
I700
ssV\u706b\u661f\u60c5\u62a5\u5c403
p16
(dp17
g3
V1233283000
p18
sg5
F0.7876502861160655
sg6
I3928
ssV\u950b\u5473
p19
(dp20
g3
V616932000
p21
sg5
F0.6407256426951836
sg6
I3555
ssV\u9547\u9b42\u8857
p22
(dp23
g3
V3212997000
p24
sg5
F0.6477498459275545
sg6
I5680
ssV\u4e86\u4e0d\u8d77\u7684\u5320\u4eba
p25
(dp26
g3
V52929000
p27
sg5
F0.6745308965100224
sg6
I936
ssV\u5c06\u519b\u5728\u4e0a
p28
(dp29
g3
V5924097000
p30
sg5
F0.7379498301824579
sg6
I5904
ssV\u70c8\u706b\u5982\u6b4c
p31
(dp32
g3
V3559982000
p33
sg5
F0.7837055937984031
sg6
I5886
ssV\u4e09\u65e5\u4e3a\u671f
p34
(dp35
g3
V20824000
p36
sg5
F0.7494395614405132
sg6
I2008
ssV\u8111\u5927\u6d1e\u5f00
p37
(dp38
g3
V456712597
p39
sg5
F0.46920762770418634
sg6
I1861
ssV\u89c2\u590d\u561f\u561f\u4e01\u9149\u7248
p40
(dp41
g3
V169792000
p42
sg5
F0.7350676511374634
sg6
I1094
ssV\u9189\u73b2\u73d1
p43
(dp44
g3
V4542862000
p45
sg5
F0.8428712445027533
sg6
I1290
ssV\u5947\u661f\u8bb0
p46
(dp47
g3
V1548006000
p48
sg5
F0.7305394561216239
sg6
I2579
ssV\u9189\u73b2\u73d1\u756a\u5916\u4e4b\u9189\u73b2\u73d1\u68a6
p49
(dp50
g3
V311245000
p51
sg5
F0.7020426303575191
sg6
I887
ssV\u53cd\u8bc8\u98ce\u66b4\u4e4b\u4e0d\u53ef\u9976\u6055
p52
(dp53
g3
V467000
p54
sg5
F0.43737068014547825
sg6
I16
ssV\u706b\u661f\u7814\u7a76\u9662
p55
(dp56
g3
V471176000
p57
sg5
F0.6512365138458509
sg6
I5359
ssV\u7231\u7684\u65f6\u5dee
p58
(dp59
g3
V515681000
p60
sg5
F0.6729763261123749
sg6
I3332
ssV\u5927\u660e\u9634\u9633\u5e08
p61
(dp62
g3
V10377000
p63
sg5
F0.684221394769503
sg6
I1992
ssV\u9547\u9b42\u6cd5\u5e08
p64
(dp65
g3
V63765000
p66
sg5
F0.657088847105663
sg6
I4443
ssV\u767d\u591c\u8ffd\u51f6
p67
(dp68
g3
V546595000
p69
sg5
F0.6575056840424784
sg6
I5726
ssV\u8d85\u6b21\u5143\u5076\u50cf
p70
(dp71
g3
V505799000
p72
sg5
F0.6908785388012356
sg6
I5247
ssV\u519b\u5e08\u8054\u76df2\u864e\u5578\u9f99\u541f
p73
(dp74
g3
V4272971681
p75
sg5
F0.7372458906395518
sg6
I5018
ssV\u67dc\u4e2d\u7f8e\u4eba
p76
(dp77
g3
V2105691000
p78
sg5
F0.6840579043859134
sg6
I4272
ssV\u7ec8\u6781\u4e00\u73ed5
p79
(dp80
g3
V199257000
p81
sg5
F0.656237097844959
sg6
I4866
ssV\u4e3e\u676f\u5475\u5475\u559d
p82
(dp83
g3
V289824000
p84
sg5
F0.6025113959176671
sg6
I5175
ssV\u5706\u684c\u6d3e2
p85
(dp86
g3
V180762000
p87
sg5
F0.7198453418355476
sg6
I3606
ssV\u767e\u5fc3\u767e\u5320
p88
(dp89
g3
V109228000
p90
sg5
F0.7355500852952046
sg6
I1214
ssV\u5c0f\u624b\u7275\u5c0f\u72d7
p91
(dp92
g3
V56000
p93
sg5
F0.7690196402339611
sg6
I19
ssV\u4e16\u754c\u7b2c\u4e00\u7cfb\u5217\u4e4b\u8d4c\u795eVS\u8d85\u80fd\u529b\u8005
p94
(dp95
g3
V10979000
p96
sg5
F0.7185442915028218
sg6
I296
ssV\u4e00\u5343\u96f6\u4e00\u591c\u51fa\u8d70\u5b63
p97
(dp98
g3
V16395000
p99
sg5
F0.7511921706999478
sg6
I1374
ssV\u4e00\u5343\u96f6\u4e00\u591c
p100
(dp101
g3
V467832000
p102
sg5
F0.727663930053603
sg6
I1812
ssV\u5706\u684c\u6d3e\u7b2c\u4e09\u5b63
p103
(dp104
g3
V95771000
p105
sg5
F0.8584216622422148
sg6
I288
ssV\u6625\u98ce\u5341\u91cc\u4e0d\u5982\u4f60
p106
(dp107
g3
V6031174000
p108
sg5
F0.7484039019444216
sg6
I5990
ssV\u897f\u6cb3\u53e3\u79d8\u95fb
p109
(dp110
g3
V28025000
p111
sg5
F0.578351261634136
sg6
I2420
ssV\u518d\u89c1\u518d\u89c1
p112
(dp113
g3
V761000
p114
sg5
F0.8786680002046575
sg6
I109
ssV\u98a4\u6296\u5427\uff01\u963f\u90e8
p115
(dp116
g3
V2495911000
p117
sg5
F0.7153588706273086
sg6
I5567
ssV\u63a8\u7406\u7b14\u8bb0
p118
(dp119
g3
V108276000
p120
sg5
F0.6643880841425607
sg6
I2016
ss.