(dp0
V\u76f2\u4fa0\u5927\u5f8b\u5e08
p1
(dp2
S'sum'
p3
I74
sS'aveScore'
p4
F0.9772825183813805
ssV\u5927\u738b\u4e0d\u5bb9\u6613
p5
(dp6
g3
I32
sg4
F0.9999999607964416
ssV\u4f60\u8bf4\u7684\u90fd\u5bf9
p7
(dp8
g3
I86
sg4
F0.9828152926891054
ssV\u65e0\u8bc1\u4e4b\u7f6a
p9
(dp10
g3
I41
sg4
F0.6744670841389566
ssV\u67d2\u4e2a\u6211
p11
(dp12
g3
I111
sg4
F0.8073533939002047
ssV\u6d77\u5e26
p13
(dp14
g3
I21
sg4
F0.9571269160449992
ssV\u6653\u8bf4
p15
(dp16
g3
I29
sg4
F0.9974637745967632
ssV\u98d8\u9999\u5251\u96e8
p17
(dp18
g3
I9
sg4
F0.6539647720544702
ssV\u8f69\u8f95\u5251\u4e4b\u6c49\u4e4b\u4e91
p19
(dp20
g3
I738
sg4
F0.6035635831789566
ssV\u8d85\u6b21\u5143\u5076\u50cf
p21
(dp22
g3
I237
sg4
F0.9377425643392311
ssV\u950b\u5473
p23
(dp24
g3
I194
sg4
F0.8451926317392798
ssV\u72ec\u6b65\u5929\u4e0b
p25
(dp26
g3
I178
sg4
F0.852363199585842
ssV\u6c42\u5a5a\u5927\u4f5c\u6218
p27
(dp28
g3
I779
sg4
F0.8226546278081988
ssV\u65e0\u5fc3\u6cd5\u5e082
p29
(dp30
g3
I237
sg4
F0.8323764575157487
ssV\u9b3c\u5439\u706f\u4e4b\u7267\u91ce\u8be1\u4e8b
p31
(dp32
g3
I53
sg4
F0.8067108070436693
ssV\u4e00\u5343\u96f6\u4e00\u591c
p33
(dp34
g3
I293
sg4
F0.901769550686131
ssV\u4e86\u4e0d\u8d77\u7684\u5320\u4eba
p35
(dp36
g3
I32
sg4
F0.9999879215594234
ssV\u5c06\u519b\u5728\u4e0a
p37
(dp38
g3
I396
sg4
F0.8524127070623021
ssV\u5929\u6cea\u4f20\u5947\u4e4b\u51e4\u51f0\u65e0\u53cc
p39
(dp40
g3
I44
sg4
F0.9999839814878491
ssV\u70c8\u706b\u5982\u6b4c
p41
(dp42
g3
I362
sg4
F0.9370261324649453
ssV\u4f20\u5947\u5927\u4ea8
p43
(dp44
g3
I449
sg4
F0.6942944305420535
ssV\u4e86\u4e0d\u8d77\u7684\u5320\u4eba2
p45
(dp46
g3
I8
sg4
F0.9999999999999947
ssV\u8111\u5927\u6d1e\u5f00
p47
(dp48
g3
I9
sg4
F0.9887798711633964
ssV\u5e7b\u57ce\u51e1\u4e16
p49
(dp50
g3
I58
sg4
F0.6842471310487442
ssV\u81f4\u6211\u4eec\u5355\u7eaf\u7684\u5c0f\u7f8e\u597d
p51
(dp52
g3
I603
sg4
F0.8633936159069513
ssV\u56fd\u6c11\u8001\u516c
p53
(dp54
g3
I137
sg4
F0.7227026787739417
ssV\u9189\u73b2\u73d1
p55
(dp56
g3
I5824
sg4
F0.8658530409709502
ssV\u8700\u5c71\u964d\u9b54\u4f20
p57
(dp58
g3
I5
sg4
F0.9999999864136868
ssV\u72d0\u72f8\u7684\u590f\u5929\u7b2c\u4e8c\u5b63
p59
(dp60
g3
I21
sg4
F0.9999987713232908
ssV\u5947\u661f\u8bb0
p61
(dp62
g3
I40
sg4
F0.9999996113097762
ssV\u4f7f\u5f92\u884c\u80052
p63
(dp64
g3
I77
sg4
F0.7700422349042575
ssV\u4e5d\u5dde\u6d77\u4e0a\u7267\u4e91
p65
(dp66
g3
I105
sg4
F0.896812791402229
ssV\u6211\u4eec\u7684\u4fa3\u884c
p67
(dp68
g3
I13
sg4
F0.999999998796071
ssV\u706b\u661f\u7814\u7a76\u9662
p69
(dp70
g3
I17
sg4
F0.5901781807650697
ssV\u5076\u50cf\u7ec3\u4e60\u751f
p71
(dp72
g3
I525
sg4
F0.8165841641634012
ssV\u7231\u7684\u65f6\u5dee
p73
(dp74
g3
I8
sg4
F0.9934285811588212
ssV\u730e\u9b42\u5e08
p75
(dp76
g3
I13
sg4
F0.26210451503351445
ssV\u82b1\u843d\u5bab\u5ef7\u9519\u6d41\u5e74
p77
(dp78
g3
I31
sg4
F0.7864891468511563
ssV\u8111\u529b\u7537\u4eba\u65f6\u4ee3
p79
(dp80
g3
I56
sg4
F0.9380899115144201
ssV\u851a\u84dd50\u7c73
p81
(dp82
g3
I8
sg4
F0.9999822628694275
ssV\u8700\u5c71\u6218\u7eaa2\u8e0f\u706b\u884c\u6b4c
p83
(dp84
g3
I141
sg4
F0.6278529665211572
ssV\u4e3e\u676f\u5475\u5475\u559d
p85
(dp86
g3
I26
sg4
F0.9999520778910351
ssV\u767d\u591c\u8ffd\u51f6
p87
(dp88
g3
I319
sg4
F0.9140024353697028
ssV\u5e7d\u5170\u6e56\u4e4b\u5fa1\u53a8\u9a7e\u5230
p89
(dp90
g3
I21
sg4
F0.9685187912293325
ssV\u5c0f\u620f\u9aa8\u7ea2\u697c\u68a6
p91
(dp92
g3
I4
sg4
F0.9999921872593005
ssV\u5927\u8bdd\u897f\u6e38\u4e4b\u7231\u4f60\u4e00\u4e07\u5e74
p93
(dp94
g3
I95
sg4
F0.7753112900231537
ssV\u706b\u661f\u60c5\u62a5\u5c403
p95
(dp96
g3
I20
sg4
F0.3001189698763627
ssV\u67dc\u4e2d\u7f8e\u4eba
p97
(dp98
g3
I39
sg4
F0.9342902642103942
ssV\u7ec8\u6781\u4e00\u73ed5
p99
(dp100
g3
I3
sg4
F0.9999999998115698
ssV\u4e61\u6751\u7231\u60c510
p101
(dp102
g3
I32
sg4
F0.5665848496087369
ssV\u9b3c\u5439\u706f\u4e4b\u9ec4\u76ae\u5b50\u575f
p103
(dp104
g3
I58
sg4
F0.7535788083827792
ssV\u5927\u5510\u563b\u6e38\u8bb0
p105
(dp106
g3
I6
sg4
F0.999945885911946
ssV\u7239\u5730
p107
(dp108
g3
I6
sg4
F0.5963094519589606
ssV\u8131\u53e3\u79c0\u5927\u4f1a
p109
(dp110
g3
I139
sg4
F0.891269720852365
ssV\u767e\u5fc3\u767e\u5320
p111
(dp112
g3
I133
sg4
F0.3702965157145984
ssV\u5c0f\u624b\u7275\u5c0f\u72d7
p113
(dp114
g3
I6
sg4
F0.9297729206578431
ssV\u4f60\u597d\u65e7\u65f6\u5149
p115
(dp116
g3
I391
sg4
F0.919209810880582
ssV\u6e8f\u5fc3\u98ce\u66b43
p117
(dp118
g3
I75
sg4
F0.9491505267834716
ssV\u6740\u4e0d\u6b7b
p119
(dp120
g3
I7
sg4
F0.8645998666756209
ssV\u719f\u6089\u7684\u964c\u751f\u4eba
p121
(dp122
g3
I12
sg4
F0.9999524684927786
ssV\u660e\u65e5\u4e4b\u5b50
p123
(dp124
g3
I1241
sg4
F0.866951977774446
ssV\u9547\u9b42\u8857
p125
(dp126
g3
I29
sg4
F0.5565097453347082
ssV\u519b\u5e08\u8054\u76df2\u864e\u5578\u9f99\u541f
p127
(dp128
g3
I23
sg4
F0.9868600431990392
ssV\u673a\u5668\u4eba\u4e89\u9738
p129
(dp130
g3
I90
sg4
F0.8182561611316067
ssV\u72d0\u72f8\u7684\u590f\u5929
p131
(dp132
g3
I125
sg4
F0.9458530954243891
ssV\u996d\u5c40\u7684\u8bf1\u60d12
p133
(dp134
g3
I9
sg4
F0.9999999979290511
ssV\u73ed\u957f\u5927\u4eba
p135
(dp136
g3
I47
sg4
F0.9005009287605038
ssV\u5927\u5ac2
p137
(dp138
g3
I104
sg4
F0.9130633624412247
ssV\u6625\u98ce\u5341\u91cc\u4e0d\u5982\u4f60
p139
(dp140
g3
I126
sg4
F0.7738219286771169
ssV\u53cc\u4e16\u5ba0\u5983
p141
(dp142
g3
I62
sg4
F0.9400864857536376
ssV\u9006\u88ad\u4e4b\u661f\u9014\u7480\u74a8
p143
(dp144
g3
I50
sg4
F0.9779471502956479
ssV\u82b1\u95f4\u63d0\u58f6\u65b9\u5927\u53a8
p145
(dp146
g3
I21
sg4
F0.8278233236709408
ssV\u738b\u8005\u51fa\u51fb
p147
(dp148
g3
I465
sg4
F0.7670496986551432
ssV\u63a8\u7406\u7b14\u8bb0
p149
(dp150
g3
I20
sg4
F0.9934887920866681
ssV\u89c1\u5b57\u5982\u97622
p151
(dp152
g3
I10
sg4
F0.4415419500607641
ss.