(dp0
V\u5f00\u5c01\u5947\u8c08
p1
(dp2
S'playCount'
p3
V326613816
p4
sS'aveScore'
p5
F0.5891183052759205
sS'sum'
p6
I9413
sS'indexFile'
p7
V38.txt
p8
ssV\u8b66\u5bdf\u9505\u54e5 \u7b2c\u4e00\u5b63+\u7b2c\u4e8c\u5b63
p9
(dp10
g3
V425253862
p11
sg5
F0.5228998960285762
sg6
I2396
sg7
V32.txt
p12
ssV\u5e7d\u5170\u6e56\u4e4b\u5fa1\u53a8\u9a7e\u5230
p13
(dp14
g3
V117743395
p15
sg5
F0.6254245633284571
sg6
I2279
sg7
V1.txt
p16
ssV\u5e7b\u57ce\u51e1\u4e16
p17
(dp18
g3
V139270857
p19
sg5
F0.6432640533013845
sg6
I2031
sg7
V23.txt
p20
ssV\u6d88\u5931\u7684\u59bb\u5b50
p21
(dp22
g3
V12623220
p23
sg5
F0.4009883823694126
sg6
I8
sg7
V52.txt
p24
ssV\u4f2a\u88c5\u5927\u5e081\uff1a\u7ef4\u591a\u5973\u4eba
p25
(dp26
g3
V22616529
p27
sg5
F0.7476053720856362
sg6
I8
sg7
V35.txt
p28
ssV\u9f99\u65e5\u4e00\u4f60\u6b7b\u5b9a\u4e86
p29
(dp30
g3
V1004540397
p31
sg5
F0.685459082665272
sg6
I5067
sg7
V9.txt
p32
ssV\u5c0f\u620f\u9aa8\u7ea2\u697c\u68a6
p33
(dp34
g3
V180219350
p35
sg5
F0.8387262828480807
sg6
I2127
sg7
V41.txt
p36
ssV\u5927\u738b\u4e0d\u5bb9\u6613
p37
(dp38
g3
V599200623
p39
sg5
F0.6389663322044146
sg6
I4622
sg7
V39.txt
p40
ssV\u4f2a\u88c5\u5927\u5e08
p41
(dp42
g3
V22616529
p43
sg5
F0.7476053720856362
sg6
I8
sg7
V16.txt
p44
ssV\u89c1\u5b57\u5982\u97622
p45
(dp46
g3
V15491000
p47
sg5
F0.7780733749912583
sg6
I4146
sg7
V6.txt
p48
ssV\u72ec\u6b65\u5929\u4e0b
p49
(dp50
g3
V2435583126
p51
sg5
F0.7361907500307033
sg6
I7184
sg7
V22.txt
p52
ssV\u6c42\u5a5a\u5927\u4f5c\u6218
p53
(dp54
g3
V460000000
p55
sg5
F0.6417607144631499
sg6
I5901
sg7
V7.txt
p56
ssV\u73ed\u957f\u5927\u4eba
p57
(dp58
g3
V521863125
p59
sg5
F0.700315711166887
sg6
I1965
sg7
V45.txt
p60
ssV\u719f\u6089\u7684\u964c\u751f\u4eba
p61
(dp62
g3
V16614356
p63
sg5
F0.6960440863097078
sg6
I48
sg7
V19.txt
p64
ssV\u67d2\u4e2a\u6211
p65
(dp66
g3
V3899484689
p67
sg5
F0.6818343618177954
sg6
I4498
sg7
V5.txt
p68
ssV\u81f4\u6211\u4eec\u5355\u7eaf\u7684\u5c0f\u7f8e\u597d
p69
(dp70
g3
V3440100930
p71
sg5
F0.7153881092330487
sg6
I4689
sg7
V30.txt
p72
ssV\u56fd\u6c11\u8001\u516c
p73
(dp74
g3
V2002427643
p75
sg5
F0.701953874762158
sg6
I5062
sg7
V12.txt
p76
ssV\u65e0\u5fc3\u6cd5\u5e082
p77
(dp78
g3
V1865176782
p79
sg5
F0.6637391732010048
sg6
I6303
sg7
V49.txt
p80
ssV\u66ff\u4ee3\u80052
p81
(dp82
g3
V5753319
p83
sg5
F0.627236593479712
sg6
I21
sg7
V4.txt
p84
ssV\u62dc\u6258\u4e86\u51b0\u7bb13
p85
(dp86
g3
V42533000
p87
sg5
F0.7271609343176166
sg6
I5451
sg7
V50.txt
p88
ssV\u6211\u4eec\u7684\u4fa3\u884c
p89
(dp90
g3
V8857000
p91
sg5
F0.6384761137257148
sg6
I3958
sg7
V48.txt
p92
ssV\u5c11\u5e74\u6709\u70b9\u9177
p93
(dp94
g3
V50017632
p95
sg5
F0.4991995374421238
sg6
I2783
sg7
V13.txt
p96
ssV\u82b1\u843d\u5bab\u5ef7\u9519\u6d41\u5e74
p97
(dp98
g3
V361215692
p99
sg5
F0.6544475056281801
sg6
I3382
sg7
V33.txt
p100
ssV\u8111\u529b\u7537\u4eba\u65f6\u4ee3
p101
(dp102
g3
V43473983
p103
sg5
F0.6727593054997695
sg6
I5412
sg7
V15.txt
p104
ssV\u851a\u84dd50\u7c73
p105
(dp106
g3
V266533733
p107
sg5
F0.6233492697363382
sg6
I953
sg7
V55.txt
p108
ssV\u53d8\u8eab\u5973\u53cb
p109
(dp110
g3
V71353197
p111
sg5
F0.675924841980456
sg6
I975
sg7
V2.txt
p112
ssV\u6211\u7684\u91ce\u86ee\u56e7\u59832
p113
(dp114
g3
V16710990
p115
sg5
F0.4781929296102483
sg6
I70
sg7
V8.txt
p116
ssV\u9b54\u6e38\u7eaa4\u767d\u9aa8\u4e4b\u59ec
p117
(dp118
g3
V25833600
p119
sg5
F0.6889398326373476
sg6
I27
sg7
V40.txt
p120
ssV\u9006\u88ad\u4e4b\u661f\u9014\u7480\u74a8
p121
(dp122
g3
V1710833830
p123
sg5
F0.6861122270099138
sg6
I6828
sg7
V37.txt
p124
ssV\u6559\u6570\u5b66\u7684\u4f53\u80b2\u8001\u5e08
p125
(dp126
g3
V10570132
p127
sg5
F0.9827402969182218
sg6
I1
sg7
V46.txt
p128
ssV\u9b3c\u5439\u706f\u4e4b\u9ec4\u76ae\u5b50\u575f
p129
(dp130
g3
V2787435209
p131
sg5
F0.5192938175503541
sg6
I6397
sg7
V24.txt
p132
ssV\u5410\u69fd\u5927\u4f1a\u7b2c2\u5b63
p133
(dp134
g3
V170000000
p135
sg5
F0.6136198602151759
sg6
I5678
sg7
V36.txt
p136
ssV\u8131\u53e3\u79c0\u5927\u4f1a
p137
(dp138
g3
V53705000
p139
sg5
F0.5998451555857325
sg6
I5264
sg7
V10.txt
p140
ssV\u5e0c\u8389\u5a05\u5f52\u6765
p141
(dp142
g3
V38145277
p143
sg5
F0.3861680981750466
sg6
I50
sg7
V21.txt
p144
ssV\u6e8f\u5fc3\u98ce\u66b43
p145
(dp146
g3
V1137556547
p147
sg5
F0.6404523035223084
sg6
I6623
sg7
V34.txt
p148
ssV\u6740\u4e0d\u6b7b
p149
(dp150
g3
V118843484
p151
sg5
F0.6420532560695633
sg6
I4820
sg7
V25.txt
p152
ssV\u4f2a\u88c5\u5927\u5e082\uff1a\u5b8c\u7f8e\u9a97\u5c40
p153
(dp154
g3
V7424672
p155
sg5
F0.749337932858912
sg6
I4
sg7
V47.txt
p156
ssV\u4e5d\u5929\u7384\u9e1f
p157
(dp158
g3
V38970625
p159
sg5
F0.6545581462010522
sg6
I53
sg7
V53.txt
p160
ssV\u4f7f\u5f92\u884c\u80052
p161
(dp162
g3
V2105852795
p163
sg5
F0.6238446843132311
sg6
I5294
sg7
V28.txt
p164
ssV\u660e\u65e5\u4e4b\u5b50
p165
(dp166
g3
V290000000
p167
sg5
F0.7495659556556403
sg6
I5518
sg7
V18.txt
p168
ssV\u62a5\u544a\u8001\u5e08\uff01\u6211\u662f\u4e1c\u5317\u4eba
p169
(dp170
g3
V16710990
p171
sg5
F0.48065603406580615
sg6
I60
sg7
V14.txt
p172
ssV\u72d0\u72f8\u7684\u590f\u5929\u7b2c\u4e8c\u5b63
p173
(dp174
g3
V1046332033
p175
sg5
F0.6449867745862697
sg6
I5317
sg7
V27.txt
p176
ssV\u996d\u5c40\u7684\u8bf1\u60d12
p177
(dp178
g3
V37345231
p179
sg5
F0.6980571354972737
sg6
I5619
sg7
V29.txt
p180
ssV\u7ea6\u5427\u5927\u660e\u661f2
p181
(dp182
g3
V79955898
p183
sg5
F0.683327435440375
sg6
I6719
sg7
V54.txt
p184
ssV\u6709\u8a00\u5728\u4ed9
p185
(dp186
g3
V57901352
p187
sg5
F0.9878209656054753
sg6
I2
sg7
V17.txt
p188
ssV\u53cc\u4e16\u5ba0\u5983
p189
(dp190
g3
V4581852676
p191
sg5
F0.678553975181881
sg6
I5132
sg7
V3.txt
p192
ssV\u653e\u5f00\u6211\u5317\u9f3b2
p193
(dp194
g3
V86418000
p195
sg5
F0.7356627607538913
sg6
I4845
sg7
V43.txt
p196
ssV\u738b\u8005\u51fa\u51fb
p197
(dp198
g3
V67145000
p199
sg5
F0.7178367081950989
sg6
I5186
sg7
V20.txt
p200
ssV\u4e61\u6751\u7231\u60c510
p201
(dp202
g3
V581824099
p203
sg5
F0.599859845521429
sg6
I4397
sg7
V26.txt
p204
ss.