(dp0
V\u4e86\u4e0d\u8d77\u7684\u5b69\u5b502
p1
(dp2
S'sum'
p3
I3743
sS'aveScore'
p4
F0.7434947413191882
ssV\u7279\u79cd\u5175\u738b2\u4f7f\u547d\u6289\u62e9
p5
(dp6
g3
I418
sg4
F0.5563152980041226
ssV\u6781\u9053\u5c11\u5973
p7
(dp8
g3
I236
sg4
F0.6772134425444375
ss.